target datalayout = "e-m:e-p270:32:32-p271:32:32-p272:64:64-i64:64-i128:128-f80:128-n8:16:32:64-S128"
target triple = "x86_64-pc-linux-gnu"

@.str.57 = private unnamed_addr constant [30 x i8] c"Assertion %s failed at %s:%d\0A\00", align 1
@.str.58 = private unnamed_addr constant [15 x i8] c"samplerate > 0\00", align 1
@.str.59 = private unnamed_addr constant [21 x i8] c"libavcodec/flacenc.c\00", align 1
@ff_flac_blocksize_table = external constant [16 x i32], align 16

; Function Attrs: nounwind uwtable
define internal i32 @select_blocksize(i32 noundef %0, i32 noundef %1) #1 {
  %3 = alloca i32, align 4
  %4 = alloca i32, align 4
  %5 = alloca i32, align 4
  %6 = alloca i32, align 4
  %7 = alloca i32, align 4
  store i32 %0, ptr %3, align 4, !tbaa !29
  store i32 %1, ptr %4, align 4, !tbaa !29
  call void @llvm.lifetime.start.p0(i64 4, ptr %5) #12
  call void @llvm.lifetime.start.p0(i64 4, ptr %6) #12
  call void @llvm.lifetime.start.p0(i64 4, ptr %7) #12
  br label %8

8:                                                ; preds = %2
  %9 = load i32, ptr %3, align 4, !tbaa !29
  %10 = icmp sgt i32 %9, 0
  br i1 %10, label %12, label %11

11:                                               ; preds = %8
  call void (ptr, i32, ptr, ...) @av_log(ptr noundef null, i32 noundef 0, ptr noundef @.str.57, ptr noundef @.str.58, ptr noundef @.str.59, i32 noundef 199)
  call void @abort() #14
  unreachable

12:                                               ; preds = %8
  br label %13

13:                                               ; preds = %12
  br label %14

14:                                               ; preds = %13
  %15 = load i32, ptr getelementptr inbounds ([16 x i32], ptr @ff_flac_blocksize_table, i64 0, i64 1), align 4, !tbaa !29
  store i32 %15, ptr %7, align 4, !tbaa !29
  %16 = load i32, ptr %3, align 4, !tbaa !29
  %17 = load i32, ptr %4, align 4, !tbaa !29
  %18 = mul nsw i32 %16, %17
  %19 = sdiv i32 %18, 1000
  store i32 %19, ptr %6, align 4, !tbaa !29
  store i32 0, ptr %5, align 4, !tbaa !29
  br label %20

20:                                               ; preds = %43, %14
  %21 = load i32, ptr %5, align 4, !tbaa !29
  %22 = icmp slt i32 %21, 16
  br i1 %22, label %23, label %46

23:                                               ; preds = %20
  %24 = load i32, ptr %6, align 4, !tbaa !29
  %25 = load i32, ptr %5, align 4, !tbaa !29
  %26 = sext i32 %25 to i64
  %27 = getelementptr inbounds [16 x i32], ptr @ff_flac_blocksize_table, i64 0, i64 %26
  %28 = load i32, ptr %27, align 4, !tbaa !29
  %29 = icmp sge i32 %24, %28
  br i1 %29, label %30, label %42

30:                                               ; preds = %23
  %31 = load i32, ptr %5, align 4, !tbaa !29
  %32 = sext i32 %31 to i64
  %33 = getelementptr inbounds [16 x i32], ptr @ff_flac_blocksize_table, i64 0, i64 %32
  %34 = load i32, ptr %33, align 4, !tbaa !29
  %35 = load i32, ptr %7, align 4, !tbaa !29
  %36 = icmp sgt i32 %34, %35
  br i1 %36, label %37, label %42

37:                                               ; preds = %30
  %38 = load i32, ptr %5, align 4, !tbaa !29
  %39 = sext i32 %38 to i64
  %40 = getelementptr inbounds [16 x i32], ptr @ff_flac_blocksize_table, i64 0, i64 %39
  %41 = load i32, ptr %40, align 4, !tbaa !29
  store i32 %41, ptr %7, align 4, !tbaa !29
  br label %42

42:                                               ; preds = %37, %30, %23
  br label %43

43:                                               ; preds = %42
  %44 = load i32, ptr %5, align 4, !tbaa !29
  %45 = add nsw i32 %44, 1
  store i32 %45, ptr %5, align 4, !tbaa !29
  br label %20, !llvm.loop !95

46:                                               ; preds = %20
  %47 = load i32, ptr %7, align 4, !tbaa !29
  call void @llvm.lifetime.end.p0(i64 4, ptr %7) #12
  call void @llvm.lifetime.end.p0(i64 4, ptr %6) #12
  call void @llvm.lifetime.end.p0(i64 4, ptr %5) #12
  ret i32 %47
}