; Function Attrs: nounwind uwtable
define internal fastcc i32 @select_blocksize(i32 noundef %0, i32 noundef %1) unnamed_addr #1 {
  %3 = icmp sgt i32 %0, 0
  br i1 %3, label %5, label %4

4:                                                ; preds = %2
  tail call void (ptr, i32, ptr, ...) @av_log(ptr noundef null, i32 noundef 0, ptr noundef nonnull @.str.57, ptr noundef nonnull @.str.58, ptr noundef nonnull @.str.59, i32 noundef 199) #11
  tail call void @abort() #13
  unreachable

5:                                                ; preds = %2
  %6 = load i32, ptr getelementptr inbounds nuw (i8, ptr @ff_flac_blocksize_table, i64 4), align 4, !tbaa !45
  %7 = mul nsw i32 %1, %0
  %8 = sdiv i32 %7, 1000
  br label %9

9:                                                ; preds = %5, %9
  %indvars.iv = phi i64 [ 0, %5 ], [ %indvars.iv.next, %9 ]
  %.015 = phi i32 [ %6, %5 ], [ %.1, %9 ]
  %10 = getelementptr inbounds nuw [16 x i32], ptr @ff_flac_blocksize_table, i64 0, i64 %indvars.iv
  %11 = load i32, ptr %10, align 4, !tbaa !45
  %.not.not = icmp slt i32 %8, %11
  %12 = tail call i32 @llvm.smax.i32(i32 %11, i32 %.015)
  %.1 = select i1 %.not.not, i32 %.015, i32 %12
  %indvars.iv.next = add nuw nsw i64 %indvars.iv, 1
  %exitcond.not = icmp eq i64 %indvars.iv.next, 16
  br i1 %exitcond.not, label %13, label %9, !llvm.loop !149

13:                                               ; preds = %9
  ret i32 %.1
}